ARM GAS  C:\windows\cchbO5cI.s 			page 1


   1              		.syntax unified
   2              		.cpu cortex-m3
   3              		.fpu softvfp
   4              		.eabi_attribute 20, 1
   5              		.eabi_attribute 21, 1
   6              		.eabi_attribute 23, 3
   7              		.eabi_attribute 24, 1
   8              		.eabi_attribute 25, 1
   9              		.eabi_attribute 26, 1
  10              		.eabi_attribute 30, 6
  11              		.eabi_attribute 34, 1
  12              		.eabi_attribute 18, 4
  13              		.thumb
  14              		.file	"mapping.cxx"
  15              		.text
  16              	.Ltext0:
  17              		.cfi_sections	.debug_frame
  18              		.global	In
  19              		.section	.inputs,"aw",%progbits
  20              		.align	2
  23              	In:
  24 0000 0000     		.space	2
  25              		.global	Out
  26 0002 0000     		.section	.outputs,"aw",%progbits
  27              		.align	2
  30              	Out:
  31 0000 00000000 		.space	4
  32              		.text
  33              	.Letext0:
  34              		.file 1 "C:\\Plug & Drive Studio\\PNDS-2.1.1-x86\\workspace\\simplified\\gen\\types.h"
  35              		.file 2 "C:\\Plug & Drive Studio\\PNDS-2.1.1-x86\\workspace\\simplified\\gen\\mapping.h"
  36              		.file 3 "C:\\Plug & Drive Studio\\PNDS-2.1.1-x86\\workspace\\simplified\\gen\\mapping.cxx"
ARM GAS  C:\windows\cchbO5cI.s 			page 2

